; Function Attrs: mustprogress nofree norecurse nosync nounwind willreturn memory(argmem: readwrite) uwtable
define hidden noundef nonnull align 8 dereferenceable(9) ptr @_ZN6casadi18UniversalNodeOwneraSEOS0_(ptr noundef nonnull returned align 8 dereferenceable(9) %0, ptr nocapture noundef nonnull align 8 dereferenceable(9) %1) local_unnamed_addr #7 align 2 {
  %3 = load ptr, ptr %0, align 8
  %4 = load ptr, ptr %1, align 8
  store ptr %4, ptr %0, align 8
  store ptr %3, ptr %1, align 8
  %5 = getelementptr inbounds i8, ptr %0, i64 8
  %6 = getelementptr inbounds i8, ptr %1, i64 8
  %7 = load i8, ptr %5, align 8
  %8 = and i8 %7, 1
  %9 = load i8, ptr %6, align 8
  %10 = and i8 %9, 1
  store i8 %10, ptr %5, align 8
  store i8 %8, ptr %6, align 8
  ret ptr %0
}